target datalayout = "e-m:e-p270:32:32-p271:32:32-p272:64:64-i64:64-i128:128-f80:128-n8:16:32:64-S128"
target triple = "x86_64-pc-linux-gnu"

%struct.KLVPacket = type { [16 x i8], i64, i64, i64 }
%struct.MXFContext = type { ptr, ptr, i32, i32, ptr, i32, ptr, i32, [26 x %struct.MXFMetadataSetGroup], ptr, ptr, ptr, i32, i64, %struct.KLVPacket, i32, ptr, i32, i64, i32, i32, ptr, i32 }
%struct.MXFMetadataSetGroup = type { ptr, i32 }
%struct.MXFMetadataSet = type { [16 x i8], i64 }
%struct.MXFPackage = type { %struct.MXFMetadataSet, [16 x i8], [16 x i8], ptr, i32, [16 x i8], ptr, ptr, i32 }
%struct.MXFStructuralComponent = type { %struct.MXFMetadataSet, [16 x i8], [16 x i8], [16 x i8], i64, i64, i32 }
%struct.MXFEssenceGroup = type { %struct.MXFMetadataSet, ptr, i32, i64 }

; Function Attrs: nounwind uwtable
define internal ptr @mxf_resolve_source_package(ptr noundef %0, ptr noundef %1, ptr noundef %2) #0 {
  %4 = alloca ptr, align 8
  %5 = alloca ptr, align 8
  %6 = alloca ptr, align 8
  %7 = alloca ptr, align 8
  %8 = alloca ptr, align 8
  %9 = alloca i32, align 4
  %10 = alloca i32, align 4
  store ptr %0, ptr %5, align 8, !tbaa !35
  store ptr %1, ptr %6, align 8, !tbaa !13
  store ptr %2, ptr %7, align 8, !tbaa !13
  call void @llvm.lifetime.start.p0(i64 8, ptr %8) #13
  store ptr null, ptr %8, align 8, !tbaa !146
  call void @llvm.lifetime.start.p0(i64 4, ptr %9) #13
  store i32 0, ptr %9, align 4, !tbaa !47
  br label %11

11:                                               ; preds = %46, %3
  %12 = load i32, ptr %9, align 4, !tbaa !47
  %13 = load ptr, ptr %5, align 8, !tbaa !35
  %14 = getelementptr inbounds nuw %struct.MXFContext, ptr %13, i32 0, i32 5
  %15 = load i32, ptr %14, align 8, !tbaa !148
  %16 = icmp slt i32 %12, %15
  br i1 %16, label %17, label %49

17:                                               ; preds = %11
  %18 = load ptr, ptr %5, align 8, !tbaa !35
  %19 = load ptr, ptr %5, align 8, !tbaa !35
  %20 = getelementptr inbounds nuw %struct.MXFContext, ptr %19, i32 0, i32 4
  %21 = load ptr, ptr %20, align 8, !tbaa !149
  %22 = load i32, ptr %9, align 4, !tbaa !47
  %23 = sext i32 %22 to i64
  %24 = getelementptr inbounds [16 x i8], ptr %21, i64 %23
  %25 = call ptr @mxf_resolve_strong_ref(ptr noundef %18, ptr noundef %24, i32 noundef 2)
  store ptr %25, ptr %8, align 8, !tbaa !146
  %26 = load ptr, ptr %8, align 8, !tbaa !146
  %27 = icmp ne ptr %26, null
  br i1 %27, label %29, label %28

28:                                               ; preds = %17
  br label %46

29:                                               ; preds = %17
  %30 = load ptr, ptr %8, align 8, !tbaa !146
  %31 = getelementptr inbounds nuw %struct.MXFPackage, ptr %30, i32 0, i32 2
  %32 = getelementptr inbounds [16 x i8], ptr %31, i64 0, i64 0
  %33 = load ptr, ptr %6, align 8, !tbaa !13
  %34 = call i32 @memcmp(ptr noundef %32, ptr noundef %33, i64 noundef 16) #14
  %35 = icmp ne i32 %34, 0
  br i1 %35, label %45, label %36

36:                                               ; preds = %29
  %37 = load ptr, ptr %8, align 8, !tbaa !146
  %38 = getelementptr inbounds nuw %struct.MXFPackage, ptr %37, i32 0, i32 1
  %39 = getelementptr inbounds [16 x i8], ptr %38, i64 0, i64 0
  %40 = load ptr, ptr %7, align 8, !tbaa !13
  %41 = call i32 @memcmp(ptr noundef %39, ptr noundef %40, i64 noundef 16) #14
  %42 = icmp ne i32 %41, 0
  br i1 %42, label %45, label %43

43:                                               ; preds = %36
  %44 = load ptr, ptr %8, align 8, !tbaa !146
  store ptr %44, ptr %4, align 8
  store i32 1, ptr %10, align 4
  br label %50

45:                                               ; preds = %36, %29
  br label %46

46:                                               ; preds = %45, %28
  %47 = load i32, ptr %9, align 4, !tbaa !47
  %48 = add nsw i32 %47, 1
  store i32 %48, ptr %9, align 4, !tbaa !47
  br label %11, !llvm.loop !359

49:                                               ; preds = %11
  store ptr null, ptr %4, align 8
  store i32 1, ptr %10, align 4
  br label %50

50:                                               ; preds = %49, %43
  call void @llvm.lifetime.end.p0(i64 4, ptr %9) #13
  call void @llvm.lifetime.end.p0(i64 8, ptr %8) #13
  %51 = load ptr, ptr %4, align 8
  ret ptr %51
}

; Function Attrs: nounwind uwtable
define internal ptr @mxf_resolve_strong_ref(ptr noundef %0, ptr noundef %1, i32 noundef %2) #0 {
  %4 = alloca ptr, align 8
  %5 = alloca ptr, align 8
  %6 = alloca ptr, align 8
  %7 = alloca i32, align 4
  %8 = alloca ptr, align 8
  %9 = alloca i32, align 4
  %10 = alloca i32, align 4
  store ptr %0, ptr %5, align 8, !tbaa !35
  store ptr %1, ptr %6, align 8, !tbaa !13
  store i32 %2, ptr %7, align 4, !tbaa !47
  call void @llvm.lifetime.start.p0(i64 8, ptr %8) #13
  %11 = load ptr, ptr %5, align 8, !tbaa !35
  %12 = getelementptr inbounds nuw %struct.MXFContext, ptr %11, i32 0, i32 8
  %13 = load i32, ptr %7, align 4, !tbaa !47
  %14 = zext i32 %13 to i64
  %15 = getelementptr inbounds nuw [26 x %struct.MXFMetadataSetGroup], ptr %12, i64 0, i64 %14
  store ptr %15, ptr %8, align 8, !tbaa !114
  %16 = load ptr, ptr %6, align 8, !tbaa !13
  %17 = icmp ne ptr %16, null
  br i1 %17, label %19, label %18

18:                                               ; preds = %3
  store ptr null, ptr %4, align 8
  store i32 1, ptr %9, align 4
  br label %57

19:                                               ; preds = %3
  call void @llvm.lifetime.start.p0(i64 4, ptr %10) #13
  %20 = load ptr, ptr %8, align 8, !tbaa !114
  %21 = getelementptr inbounds nuw %struct.MXFMetadataSetGroup, ptr %20, i32 0, i32 1
  %22 = load i32, ptr %21, align 8, !tbaa !116
  %23 = sub nsw i32 %22, 1
  store i32 %23, ptr %10, align 4, !tbaa !47
  br label %24

24:                                               ; preds = %51, %19
  %25 = load i32, ptr %10, align 4, !tbaa !47
  %26 = icmp sge i32 %25, 0
  br i1 %26, label %28, label %27

27:                                               ; preds = %24
  store i32 2, ptr %9, align 4
  br label %54

28:                                               ; preds = %24
  %29 = load ptr, ptr %6, align 8, !tbaa !13
  %30 = getelementptr inbounds [16 x i8], ptr %29, i64 0, i64 0
  %31 = load ptr, ptr %8, align 8, !tbaa !114
  %32 = getelementptr inbounds nuw %struct.MXFMetadataSetGroup, ptr %31, i32 0, i32 0
  %33 = load ptr, ptr %32, align 8, !tbaa !119
  %34 = load i32, ptr %10, align 4, !tbaa !47
  %35 = sext i32 %34 to i64
  %36 = getelementptr inbounds ptr, ptr %33, i64 %35
  %37 = load ptr, ptr %36, align 8, !tbaa !205
  %38 = getelementptr inbounds nuw %struct.MXFMetadataSet, ptr %37, i32 0, i32 0
  %39 = getelementptr inbounds [16 x i8], ptr %38, i64 0, i64 0
  %40 = call i32 @memcmp(ptr noundef %30, ptr noundef %39, i64 noundef 16) #14
  %41 = icmp ne i32 %40, 0
  br i1 %41, label %50, label %42

42:                                               ; preds = %28
  %43 = load ptr, ptr %8, align 8, !tbaa !114
  %44 = getelementptr inbounds nuw %struct.MXFMetadataSetGroup, ptr %43, i32 0, i32 0
  %45 = load ptr, ptr %44, align 8, !tbaa !119
  %46 = load i32, ptr %10, align 4, !tbaa !47
  %47 = sext i32 %46 to i64
  %48 = getelementptr inbounds ptr, ptr %45, i64 %47
  %49 = load ptr, ptr %48, align 8, !tbaa !205
  store ptr %49, ptr %4, align 8
  store i32 1, ptr %9, align 4
  br label %54

50:                                               ; preds = %28
  br label %51

51:                                               ; preds = %50
  %52 = load i32, ptr %10, align 4, !tbaa !47
  %53 = add nsw i32 %52, -1
  store i32 %53, ptr %10, align 4, !tbaa !47
  br label %24, !llvm.loop !347

54:                                               ; preds = %42, %27
  call void @llvm.lifetime.end.p0(i64 4, ptr %10) #13
  %55 = load i32, ptr %9, align 4
  switch i32 %55, label %57 [
    i32 2, label %56
  ]

56:                                               ; preds = %54
  store ptr null, ptr %4, align 8
  store i32 1, ptr %9, align 4
  br label %57

57:                                               ; preds = %56, %54, %18
  call void @llvm.lifetime.end.p0(i64 8, ptr %8) #13
  %58 = load ptr, ptr %4, align 8
  ret ptr %58
}

; Function Attrs: nounwind uwtable
define internal ptr @mxf_resolve_sourceclip(ptr noundef %0, ptr noundef %1) #0 {
  %3 = alloca ptr, align 8
  %4 = alloca ptr, align 8
  %5 = alloca ptr, align 8
  %6 = alloca ptr, align 8
  %7 = alloca ptr, align 8
  %8 = alloca ptr, align 8
  %9 = alloca ptr, align 8
  %10 = alloca i32, align 4
  %11 = alloca i32, align 4
  store ptr %0, ptr %4, align 8, !tbaa !35
  store ptr %1, ptr %5, align 8, !tbaa !13
  call void @llvm.lifetime.start.p0(i64 8, ptr %6) #13
  store ptr null, ptr %6, align 8, !tbaa !156
  call void @llvm.lifetime.start.p0(i64 8, ptr %7) #13
  store ptr null, ptr %7, align 8, !tbaa !146
  call void @llvm.lifetime.start.p0(i64 8, ptr %8) #13
  store ptr null, ptr %8, align 8, !tbaa !154
  call void @llvm.lifetime.start.p0(i64 8, ptr %9) #13
  call void @llvm.lifetime.start.p0(i64 4, ptr %10) #13
  %12 = load ptr, ptr %4, align 8, !tbaa !35
  %13 = load ptr, ptr %5, align 8, !tbaa !13
  %14 = call ptr @mxf_resolve_strong_ref(ptr noundef %12, ptr noundef %13, i32 noundef 3)
  store ptr %14, ptr %6, align 8, !tbaa !156
  %15 = load ptr, ptr %6, align 8, !tbaa !156
  %16 = icmp ne ptr %15, null
  br i1 %16, label %17, label %19

17:                                               ; preds = %2
  %18 = load ptr, ptr %6, align 8, !tbaa !156
  store ptr %18, ptr %3, align 8
  store i32 1, ptr %11, align 4
  br label %70

19:                                               ; preds = %2
  %20 = load ptr, ptr %4, align 8, !tbaa !35
  %21 = load ptr, ptr %5, align 8, !tbaa !13
  %22 = call ptr @mxf_resolve_strong_ref(ptr noundef %20, ptr noundef %21, i32 noundef 17)
  store ptr %22, ptr %9, align 8, !tbaa !90
  %23 = load ptr, ptr %9, align 8, !tbaa !90
  %24 = icmp ne ptr %23, null
  br i1 %24, label %26, label %25

25:                                               ; preds = %19
  store ptr null, ptr %3, align 8
  store i32 1, ptr %11, align 4
  br label %70

26:                                               ; preds = %19
  store i32 0, ptr %10, align 4, !tbaa !47
  br label %27

27:                                               ; preds = %66, %26
  %28 = load i32, ptr %10, align 4, !tbaa !47
  %29 = load ptr, ptr %9, align 8, !tbaa !90
  %30 = getelementptr inbounds nuw %struct.MXFEssenceGroup, ptr %29, i32 0, i32 2
  %31 = load i32, ptr %30, align 8, !tbaa !356
  %32 = icmp slt i32 %28, %31
  br i1 %32, label %33, label %69

33:                                               ; preds = %27
  %34 = load ptr, ptr %4, align 8, !tbaa !35
  %35 = load ptr, ptr %9, align 8, !tbaa !90
  %36 = getelementptr inbounds nuw %struct.MXFEssenceGroup, ptr %35, i32 0, i32 1
  %37 = load ptr, ptr %36, align 8, !tbaa !357
  %38 = load i32, ptr %10, align 4, !tbaa !47
  %39 = sext i32 %38 to i64
  %40 = getelementptr inbounds [16 x i8], ptr %37, i64 %39
  %41 = call ptr @mxf_resolve_strong_ref(ptr noundef %34, ptr noundef %40, i32 noundef 3)
  store ptr %41, ptr %6, align 8, !tbaa !156
  %42 = load ptr, ptr %6, align 8, !tbaa !156
  %43 = icmp ne ptr %42, null
  br i1 %43, label %45, label %44

44:                                               ; preds = %33
  br label %66

45:                                               ; preds = %33
  %46 = load ptr, ptr %4, align 8, !tbaa !35
  %47 = load ptr, ptr %6, align 8, !tbaa !156
  %48 = getelementptr inbounds nuw %struct.MXFStructuralComponent, ptr %47, i32 0, i32 1
  %49 = getelementptr inbounds [16 x i8], ptr %48, i64 0, i64 0
  %50 = load ptr, ptr %6, align 8, !tbaa !156
  %51 = getelementptr inbounds nuw %struct.MXFStructuralComponent, ptr %50, i32 0, i32 2
  %52 = getelementptr inbounds [16 x i8], ptr %51, i64 0, i64 0
  %53 = call ptr @mxf_resolve_source_package(ptr noundef %46, ptr noundef %49, ptr noundef %52)
  store ptr %53, ptr %7, align 8, !tbaa !146
  %54 = icmp ne ptr %53, null
  br i1 %54, label %56, label %55

55:                                               ; preds = %45
  br label %66

56:                                               ; preds = %45
  %57 = load ptr, ptr %4, align 8, !tbaa !35
  %58 = load ptr, ptr %7, align 8, !tbaa !146
  %59 = getelementptr inbounds nuw %struct.MXFPackage, ptr %58, i32 0, i32 5
  %60 = call ptr @mxf_resolve_strong_ref(ptr noundef %57, ptr noundef %59, i32 noundef 8)
  store ptr %60, ptr %8, align 8, !tbaa !154
  %61 = load ptr, ptr %8, align 8, !tbaa !154
  %62 = icmp ne ptr %61, null
  br i1 %62, label %63, label %65

63:                                               ; preds = %56
  %64 = load ptr, ptr %6, align 8, !tbaa !156
  store ptr %64, ptr %3, align 8
  store i32 1, ptr %11, align 4
  br label %70

65:                                               ; preds = %56
  br label %66

66:                                               ; preds = %65, %55, %44
  %67 = load i32, ptr %10, align 4, !tbaa !47
  %68 = add nsw i32 %67, 1
  store i32 %68, ptr %10, align 4, !tbaa !47
  br label %27, !llvm.loop !358

69:                                               ; preds = %27
  store ptr null, ptr %3, align 8
  store i32 1, ptr %11, align 4
  br label %70

70:                                               ; preds = %69, %63, %25, %17
  call void @llvm.lifetime.end.p0(i64 4, ptr %10) #13
  call void @llvm.lifetime.end.p0(i64 8, ptr %9) #13
  call void @llvm.lifetime.end.p0(i64 8, ptr %8) #13
  call void @llvm.lifetime.end.p0(i64 8, ptr %7) #13
  call void @llvm.lifetime.end.p0(i64 8, ptr %6) #13
  %71 = load ptr, ptr %3, align 8
  ret ptr %71
}