; Function Attrs: nofree norecurse nounwind memory(read, inaccessiblemem: none) uwtable
define internal fastcc noundef ptr @mxf_resolve_sourceclip(ptr noundef readonly captures(none) %0, ptr noundef readonly captures(address_is_null) %1) unnamed_addr #8 {
  %3 = getelementptr inbounds nuw i8, ptr %0, i64 104
  %.not.i = icmp eq ptr %1, null
  br i1 %.not.i, label %mxf_resolve_strong_ref.exit, label %4

4:                                                ; preds = %2
  %5 = getelementptr inbounds nuw i8, ptr %0, i64 112
  %6 = load i32, ptr %5, align 8, !tbaa !62
  %7 = zext i32 %6 to i64
  br label %8

8:                                                ; preds = %11, %4
  %indvars.iv.i = phi i64 [ %12, %11 ], [ %7, %4 ]
  %9 = trunc nuw i64 %indvars.iv.i to i32
  %10 = icmp slt i32 %9, 1
  br i1 %10, label %16, label %11

11:                                               ; preds = %8
  %12 = add nsw i64 %indvars.iv.i, -1
  %13 = load ptr, ptr %3, align 8, !tbaa !65
  %14 = getelementptr inbounds nuw ptr, ptr %13, i64 %12
  %15 = load ptr, ptr %14, align 8, !tbaa !66
  %bcmp.i = tail call i32 @bcmp(ptr noundef nonnull readonly dereferenceable(16) %1, ptr noundef nonnull dereferenceable(16) %15, i64 16)
  %.not15.i = icmp eq i32 %bcmp.i, 0
  br i1 %.not15.i, label %mxf_resolve_strong_ref.exit, label %8, !llvm.loop !68

16:                                               ; preds = %8
  %17 = getelementptr inbounds nuw i8, ptr %0, i64 328
  %18 = getelementptr inbounds nuw i8, ptr %0, i64 336
  %19 = load i32, ptr %18, align 8, !tbaa !62
  %20 = zext i32 %19 to i64
  br label %21

21:                                               ; preds = %24, %16
  %indvars.iv.i31 = phi i64 [ %25, %24 ], [ %20, %16 ]
  %22 = trunc nuw i64 %indvars.iv.i31 to i32
  %23 = icmp slt i32 %22, 1
  br i1 %23, label %mxf_resolve_strong_ref.exit, label %24

24:                                               ; preds = %21
  %25 = add nsw i64 %indvars.iv.i31, -1
  %26 = load ptr, ptr %17, align 8, !tbaa !65
  %27 = getelementptr inbounds nuw ptr, ptr %26, i64 %25
  %28 = load ptr, ptr %27, align 8, !tbaa !66
  %bcmp.i32 = tail call i32 @bcmp(ptr noundef nonnull readonly dereferenceable(16) %1, ptr noundef nonnull dereferenceable(16) %28, i64 16)
  %.not15.i33 = icmp eq i32 %bcmp.i32, 0
  br i1 %.not15.i33, label %mxf_resolve_strong_ref.exit35.preheader, label %21, !llvm.loop !68

mxf_resolve_strong_ref.exit35.preheader:          ; preds = %24
  %29 = getelementptr inbounds nuw i8, ptr %28, i64 32
  %30 = load i32, ptr %29, align 8, !tbaa !352
  %31 = icmp sgt i32 %30, 0
  br i1 %31, label %.lr.ph, label %mxf_resolve_strong_ref.exit

.lr.ph:                                           ; preds = %mxf_resolve_strong_ref.exit35.preheader
  %32 = getelementptr inbounds nuw i8, ptr %28, i64 24
  %33 = load ptr, ptr %32, align 8, !tbaa !353
  %.not.i36 = icmp eq ptr %33, null
  %34 = getelementptr inbounds nuw i8, ptr %0, i64 32
  %35 = getelementptr inbounds nuw i8, ptr %0, i64 24
  %36 = getelementptr inbounds nuw i8, ptr %0, i64 88
  %37 = getelementptr inbounds nuw i8, ptr %0, i64 96
  %38 = getelementptr inbounds nuw i8, ptr %0, i64 184
  %39 = getelementptr inbounds nuw i8, ptr %0, i64 192
  br i1 %.not.i36, label %mxf_resolve_strong_ref.exit, label %.lr.ph.split

.lr.ph.split:                                     ; preds = %.lr.ph
  %wide.trip.count = zext nneg i32 %30 to i64
  br label %40

40:                                               ; preds = %.lr.ph.split, %mxf_resolve_strong_ref.exit41.thread
  %indvars.iv = phi i64 [ 0, %.lr.ph.split ], [ %indvars.iv.next, %mxf_resolve_strong_ref.exit41.thread ]
  %41 = getelementptr inbounds nuw [16 x i8], ptr %33, i64 %indvars.iv
  br label %42

42:                                               ; preds = %45, %40
  %indvars.iv.i37 = phi i64 [ %46, %45 ], [ %7, %40 ]
  %43 = trunc nuw i64 %indvars.iv.i37 to i32
  %44 = icmp slt i32 %43, 1
  br i1 %44, label %mxf_resolve_strong_ref.exit41.thread, label %45

45:                                               ; preds = %42
  %46 = add nsw i64 %indvars.iv.i37, -1
  %47 = load ptr, ptr %3, align 8, !tbaa !65
  %48 = getelementptr inbounds nuw ptr, ptr %47, i64 %46
  %49 = load ptr, ptr %48, align 8, !tbaa !66
  %bcmp.i38 = tail call i32 @bcmp(ptr noundef nonnull readonly dereferenceable(16) %41, ptr noundef nonnull dereferenceable(16) %49, i64 16)
  %.not15.i39 = icmp eq i32 %bcmp.i38, 0
  br i1 %.not15.i39, label %mxf_resolve_strong_ref.exit41, label %42, !llvm.loop !68

mxf_resolve_strong_ref.exit41:                    ; preds = %45
  %50 = getelementptr inbounds nuw i8, ptr %49, i64 24
  %51 = getelementptr inbounds nuw i8, ptr %49, i64 40
  %52 = load i32, ptr %34, align 8, !tbaa !60
  %53 = icmp sgt i32 %52, 0
  br i1 %53, label %.lr.ph.i, label %mxf_resolve_strong_ref.exit41.thread

.lr.ph.i:                                         ; preds = %mxf_resolve_strong_ref.exit41
  %54 = load ptr, ptr %35, align 8, !tbaa !61
  %.not.i.i = icmp eq ptr %54, null
  br i1 %.not.i.i, label %mxf_resolve_strong_ref.exit41.thread, label %.lr.ph.split.i

.lr.ph.split.i:                                   ; preds = %.lr.ph.i
  %55 = load i32, ptr %37, align 8, !tbaa !62
  %56 = zext i32 %55 to i64
  %wide.trip.count.i = zext nneg i32 %52 to i64
  br label %57

57:                                               ; preds = %mxf_resolve_strong_ref.exit.thread.i, %.lr.ph.split.i
  %indvars.iv.i42 = phi i64 [ 0, %.lr.ph.split.i ], [ %indvars.iv.next.i, %mxf_resolve_strong_ref.exit.thread.i ]
  %58 = getelementptr inbounds nuw [16 x i8], ptr %54, i64 %indvars.iv.i42
  br label %59

59:                                               ; preds = %62, %57
  %indvars.iv.i.i = phi i64 [ %63, %62 ], [ %56, %57 ]
  %60 = trunc nuw i64 %indvars.iv.i.i to i32
  %61 = icmp slt i32 %60, 1
  br i1 %61, label %mxf_resolve_strong_ref.exit.thread.i, label %62

62:                                               ; preds = %59
  %63 = add nsw i64 %indvars.iv.i.i, -1
  %64 = load ptr, ptr %36, align 8, !tbaa !65
  %65 = getelementptr inbounds nuw ptr, ptr %64, i64 %63
  %66 = load ptr, ptr %65, align 8, !tbaa !66
  %bcmp.i.i = tail call i32 @bcmp(ptr noundef nonnull readonly dereferenceable(16) %58, ptr noundef nonnull dereferenceable(16) %66, i64 16)
  %.not15.i.i = icmp eq i32 %bcmp.i.i, 0
  br i1 %.not15.i.i, label %mxf_resolve_strong_ref.exit.i, label %59, !llvm.loop !68

mxf_resolve_strong_ref.exit.i:                    ; preds = %62
  %67 = getelementptr inbounds nuw i8, ptr %66, i64 40
  %bcmp.i43 = tail call i32 @bcmp(ptr noundef nonnull dereferenceable(16) %67, ptr noundef nonnull readonly dereferenceable(16) %50, i64 16)
  %.not14.i = icmp eq i32 %bcmp.i43, 0
  br i1 %.not14.i, label %68, label %mxf_resolve_strong_ref.exit.thread.i

68:                                               ; preds = %mxf_resolve_strong_ref.exit.i
  %69 = getelementptr inbounds nuw i8, ptr %66, i64 24
  %bcmp15.i = tail call i32 @bcmp(ptr noundef nonnull dereferenceable(16) %69, ptr noundef nonnull readonly dereferenceable(16) %51, i64 16)
  %.not16.i = icmp eq i32 %bcmp15.i, 0
  br i1 %.not16.i, label %mxf_resolve_source_package.exit, label %mxf_resolve_strong_ref.exit.thread.i

mxf_resolve_strong_ref.exit.thread.i:             ; preds = %59, %68, %mxf_resolve_strong_ref.exit.i
  %indvars.iv.next.i = add nuw nsw i64 %indvars.iv.i42, 1
  %exitcond.not.i = icmp eq i64 %indvars.iv.next.i, %wide.trip.count.i
  br i1 %exitcond.not.i, label %mxf_resolve_strong_ref.exit41.thread, label %57, !llvm.loop !95

mxf_resolve_source_package.exit:                  ; preds = %68
  %70 = getelementptr inbounds nuw i8, ptr %66, i64 68
  %71 = load i32, ptr %39, align 8, !tbaa !62
  %72 = zext i32 %71 to i64
  br label %73

73:                                               ; preds = %76, %mxf_resolve_source_package.exit
  %indvars.iv.i45 = phi i64 [ %77, %76 ], [ %72, %mxf_resolve_source_package.exit ]
  %74 = trunc nuw i64 %indvars.iv.i45 to i32
  %75 = icmp slt i32 %74, 1
  br i1 %75, label %mxf_resolve_strong_ref.exit41.thread, label %76

76:                                               ; preds = %73
  %77 = add nsw i64 %indvars.iv.i45, -1
  %78 = load ptr, ptr %38, align 8, !tbaa !65
  %79 = getelementptr inbounds nuw ptr, ptr %78, i64 %77
  %80 = load ptr, ptr %79, align 8, !tbaa !66
  %bcmp.i46 = tail call i32 @bcmp(ptr noundef nonnull readonly dereferenceable(16) %70, ptr noundef nonnull dereferenceable(16) %80, i64 16)
  %.not15.i47 = icmp eq i32 %bcmp.i46, 0
  br i1 %.not15.i47, label %mxf_resolve_strong_ref.exit, label %73, !llvm.loop !68

mxf_resolve_strong_ref.exit41.thread:             ; preds = %42, %mxf_resolve_strong_ref.exit.thread.i, %73, %.lr.ph.i, %mxf_resolve_strong_ref.exit41
  %indvars.iv.next = add nuw nsw i64 %indvars.iv, 1
  %exitcond.not = icmp eq i64 %indvars.iv.next, %wide.trip.count
  br i1 %exitcond.not, label %mxf_resolve_strong_ref.exit, label %40, !llvm.loop !354

mxf_resolve_strong_ref.exit:                      ; preds = %11, %21, %mxf_resolve_strong_ref.exit41.thread, %76, %.lr.ph, %mxf_resolve_strong_ref.exit35.preheader, %2
  %.021 = phi ptr [ null, %2 ], [ null, %mxf_resolve_strong_ref.exit35.preheader ], [ null, %.lr.ph ], [ %49, %76 ], [ null, %mxf_resolve_strong_ref.exit41.thread ], [ null, %21 ], [ %15, %11 ]
  ret ptr %.021
}